; Function Attrs: nounwind uwtable
define void @Res_WinMarkPaths(ptr noundef readonly captures(none) %0) local_unnamed_addr #2 {
  %2 = load ptr, ptr %0, align 8
  %3 = load ptr, ptr %2, align 8
  %4 = getelementptr inbounds nuw i8, ptr %3, i64 232
  %5 = load ptr, ptr %4, align 8
  %.not.i = icmp eq ptr %5, null
  br i1 %.not.i, label %6, label %Abc_NtkIncrementTravId.exit

6:                                                ; preds = %1
  %7 = getelementptr inbounds nuw i8, ptr %3, i64 224
  %8 = getelementptr i8, ptr %3, i64 32
  %.val.i = load ptr, ptr %8, align 8
  %9 = getelementptr i8, ptr %.val.i, i64 4
  %.val.val.i = load i32, ptr %9, align 4
  %10 = add nsw i32 %.val.val.i, 500
  %11 = load i32, ptr %7, align 8
  %.not.i.i.i = icmp slt i32 %11, %10
  br i1 %.not.i.i.i, label %12, label %Vec_IntGrow.exit.i.i

12:                                               ; preds = %6
  %13 = sext i32 %10 to i64
  %14 = shl nsw i64 %13, 2
  %15 = tail call noalias ptr @malloc(i64 noundef %14) #8
  store ptr %15, ptr %4, align 8
  store i32 %10, ptr %7, align 8
  br label %Vec_IntGrow.exit.i.i

Vec_IntGrow.exit.i.i:                             ; preds = %12, %6
  %16 = icmp sgt i32 %.val.val.i, -500
  br i1 %16, label %.lr.ph.i.i, label %Vec_IntFill.exit.i

.lr.ph.i.i:                                       ; preds = %Vec_IntGrow.exit.i.i
  %wide.trip.count.i.i = zext nneg i32 %10 to i64
  br label %17

17:                                               ; preds = %17, %.lr.ph.i.i
  %indvars.iv.i.i = phi i64 [ 0, %.lr.ph.i.i ], [ %indvars.iv.next.i.i, %17 ]
  %18 = load ptr, ptr %4, align 8
  %19 = getelementptr inbounds nuw i32, ptr %18, i64 %indvars.iv.i.i
  store i32 0, ptr %19, align 4
  %indvars.iv.next.i.i = add nuw nsw i64 %indvars.iv.i.i, 1
  %exitcond.not.i.i = icmp eq i64 %indvars.iv.next.i.i, %wide.trip.count.i.i
  br i1 %exitcond.not.i.i, label %Vec_IntFill.exit.i, label %17, !llvm.loop !8

Vec_IntFill.exit.i:                               ; preds = %17, %Vec_IntGrow.exit.i.i
  %20 = getelementptr inbounds nuw i8, ptr %3, i64 228
  store i32 %10, ptr %20, align 4
  br label %Abc_NtkIncrementTravId.exit

Abc_NtkIncrementTravId.exit:                      ; preds = %1, %Vec_IntFill.exit.i
  %21 = getelementptr inbounds nuw i8, ptr %3, i64 216
  %22 = load i32, ptr %21, align 8
  %23 = add nsw i32 %22, 1
  store i32 %23, ptr %21, align 8
  %24 = load ptr, ptr %0, align 8
  %25 = load ptr, ptr %24, align 8
  %26 = getelementptr inbounds nuw i8, ptr %25, i64 232
  %27 = load ptr, ptr %26, align 8
  %.not.i22 = icmp eq ptr %27, null
  br i1 %.not.i22, label %28, label %Abc_NtkIncrementTravId.exit33

28:                                               ; preds = %Abc_NtkIncrementTravId.exit
  %29 = getelementptr inbounds nuw i8, ptr %25, i64 224
  %30 = getelementptr i8, ptr %25, i64 32
  %.val.i23 = load ptr, ptr %30, align 8
  %31 = getelementptr i8, ptr %.val.i23, i64 4
  %.val.val.i24 = load i32, ptr %31, align 4
  %32 = add nsw i32 %.val.val.i24, 500
  %33 = load i32, ptr %29, align 8
  %.not.i.i.i25 = icmp slt i32 %33, %32
  br i1 %.not.i.i.i25, label %34, label %Vec_IntGrow.exit.i.i26

34:                                               ; preds = %28
  %35 = sext i32 %32 to i64
  %36 = shl nsw i64 %35, 2
  %37 = tail call noalias ptr @malloc(i64 noundef %36) #8
  store ptr %37, ptr %26, align 8
  store i32 %32, ptr %29, align 8
  br label %Vec_IntGrow.exit.i.i26

Vec_IntGrow.exit.i.i26:                           ; preds = %34, %28
  %38 = icmp sgt i32 %.val.val.i24, -500
  br i1 %38, label %.lr.ph.i.i28, label %Vec_IntFill.exit.i27

.lr.ph.i.i28:                                     ; preds = %Vec_IntGrow.exit.i.i26
  %wide.trip.count.i.i29 = zext nneg i32 %32 to i64
  br label %39

39:                                               ; preds = %39, %.lr.ph.i.i28
  %indvars.iv.i.i30 = phi i64 [ 0, %.lr.ph.i.i28 ], [ %indvars.iv.next.i.i31, %39 ]
  %40 = load ptr, ptr %26, align 8
  %41 = getelementptr inbounds nuw i32, ptr %40, i64 %indvars.iv.i.i30
  store i32 0, ptr %41, align 4
  %indvars.iv.next.i.i31 = add nuw nsw i64 %indvars.iv.i.i30, 1
  %exitcond.not.i.i32 = icmp eq i64 %indvars.iv.next.i.i31, %wide.trip.count.i.i29
  br i1 %exitcond.not.i.i32, label %Vec_IntFill.exit.i27, label %39, !llvm.loop !8

Vec_IntFill.exit.i27:                             ; preds = %39, %Vec_IntGrow.exit.i.i26
  %42 = getelementptr inbounds nuw i8, ptr %25, i64 228
  store i32 %32, ptr %42, align 4
  br label %Abc_NtkIncrementTravId.exit33

Abc_NtkIncrementTravId.exit33:                    ; preds = %Abc_NtkIncrementTravId.exit, %Vec_IntFill.exit.i27
  %43 = getelementptr inbounds nuw i8, ptr %25, i64 216
  %44 = load i32, ptr %43, align 8
  %45 = add nsw i32 %44, 1
  store i32 %45, ptr %43, align 8
  %46 = getelementptr inbounds nuw i8, ptr %0, i64 48
  %47 = load ptr, ptr %46, align 8
  %48 = getelementptr i8, ptr %47, i64 4
  %.val1734 = load i32, ptr %48, align 4
  %49 = icmp sgt i32 %.val1734, 0
  br i1 %49, label %.lr.ph, label %.critedge.preheader

.critedge.preheader:                              ; preds = %.lr.ph, %Abc_NtkIncrementTravId.exit33
  %50 = getelementptr inbounds nuw i8, ptr %0, i64 40
  %51 = load ptr, ptr %50, align 8
  %52 = getelementptr i8, ptr %51, i64 4
  %.val36 = load i32, ptr %52, align 4
  %53 = icmp sgt i32 %.val36, 0
  br i1 %53, label %.lr.ph38, label %.critedge2

.lr.ph38:                                         ; preds = %.critedge.preheader
  %54 = getelementptr inbounds nuw i8, ptr %0, i64 32
  br label %.critedge

.lr.ph:                                           ; preds = %Abc_NtkIncrementTravId.exit33, %.lr.ph
  %indvars.iv = phi i64 [ %indvars.iv.next, %.lr.ph ], [ 0, %Abc_NtkIncrementTravId.exit33 ]
  %55 = phi ptr [ %67, %.lr.ph ], [ %47, %Abc_NtkIncrementTravId.exit33 ]
  %56 = getelementptr i8, ptr %55, i64 8
  %.val21 = load ptr, ptr %56, align 8
  %57 = getelementptr inbounds nuw ptr, ptr %.val21, i64 %indvars.iv
  %58 = load ptr, ptr %57, align 8
  %.val18 = load ptr, ptr %58, align 8
  %59 = getelementptr i8, ptr %58, i64 16
  %.val19 = load i32, ptr %59, align 8
  %60 = getelementptr inbounds nuw i8, ptr %.val18, i64 216
  %61 = load i32, ptr %60, align 8
  %62 = getelementptr inbounds nuw i8, ptr %.val18, i64 224
  %63 = add nsw i32 %.val19, 1
  tail call fastcc void @Vec_IntFillExtra(ptr noundef nonnull %62, i32 noundef %63)
  %64 = getelementptr i8, ptr %.val18, i64 232
  %.val.i.i.i = load ptr, ptr %64, align 8
  %65 = sext i32 %.val19 to i64
  %66 = getelementptr inbounds i32, ptr %.val.i.i.i, i64 %65
  store i32 %61, ptr %66, align 4
  %indvars.iv.next = add nuw nsw i64 %indvars.iv, 1
  %67 = load ptr, ptr %46, align 8
  %68 = getelementptr i8, ptr %67, i64 4
  %.val17 = load i32, ptr %68, align 4
  %69 = sext i32 %.val17 to i64
  %70 = icmp slt i64 %indvars.iv.next, %69
  br i1 %70, label %.lr.ph, label %.critedge.preheader, !llvm.loop !20

.critedge:                                        ; preds = %.lr.ph38, %.critedge
  %indvars.iv40 = phi i64 [ 0, %.lr.ph38 ], [ %indvars.iv.next41, %.critedge ]
  %71 = phi ptr [ %51, %.lr.ph38 ], [ %78, %.critedge ]
  %72 = getelementptr i8, ptr %71, i64 8
  %.val20 = load ptr, ptr %72, align 8
  %73 = getelementptr inbounds nuw ptr, ptr %.val20, i64 %indvars.iv40
  %74 = load ptr, ptr %73, align 8
  %75 = load ptr, ptr %0, align 8
  %76 = load i32, ptr %54, align 8
  %77 = tail call i32 @Res_WinMarkPaths_rec(ptr noundef %74, ptr noundef %75, i32 noundef %76)
  %indvars.iv.next41 = add nuw nsw i64 %indvars.iv40, 1
  %78 = load ptr, ptr %50, align 8
  %79 = getelementptr i8, ptr %78, i64 4
  %.val = load i32, ptr %79, align 4
  %80 = sext i32 %.val to i64
  %81 = icmp slt i64 %indvars.iv.next41, %80
  br i1 %81, label %.critedge, label %.critedge2, !llvm.loop !21

.critedge2:                                       ; preds = %.critedge, %.critedge.preheader
  ret void
}